target datalayout = "e-m:e-p270:32:32-p271:32:32-p272:64:64-i64:64-i128:128-f80:128-n8:16:32:64-S128"
target triple = "x86_64-pc-linux-gnu"

%struct.VP8Io = type { i32, i32, i32, i32, i32, ptr, ptr, ptr, i32, i32, ptr, ptr, ptr, ptr, i32, i64, ptr, i32, i32, i32, i32, i32, i32, i32, i32, i32, ptr }
%struct.WebPDecParams = type { ptr, ptr, ptr, ptr, i32, ptr, ptr, ptr, ptr, ptr, ptr, ptr, ptr, ptr }
%struct.WebPDecBuffer = type { i32, i32, i32, i32, %union.anon, [4 x i32], ptr }
%union.anon = type { %struct.WebPYUVABuffer }
%struct.WebPYUVABuffer = type { ptr, ptr, ptr, ptr, i32, i32, i32, i32, i64, i64, i64, i64 }
%struct.WebPRGBABuffer = type { ptr, i32, i64 }

@WebPUpsamplers = external global [0 x ptr], align 8

; Function Attrs: nounwind uwtable
define internal i32 @EmitFancyRGB(ptr noundef %0, ptr noundef %1) #0 {
  %3 = alloca ptr, align 8
  %4 = alloca ptr, align 8
  %5 = alloca i32, align 4
  %6 = alloca ptr, align 8
  %7 = alloca ptr, align 8
  %8 = alloca ptr, align 8
  %9 = alloca ptr, align 8
  %10 = alloca ptr, align 8
  %11 = alloca ptr, align 8
  %12 = alloca ptr, align 8
  %13 = alloca ptr, align 8
  %14 = alloca i32, align 4
  %15 = alloca i32, align 4
  %16 = alloca i32, align 4
  %17 = alloca i32, align 4
  store ptr %0, ptr %3, align 8, !tbaa !8
  store ptr %1, ptr %4, align 8, !tbaa !3
  call void @llvm.lifetime.start.p0(i64 4, ptr %5) #6
  %18 = load ptr, ptr %3, align 8, !tbaa !8
  %19 = getelementptr inbounds nuw %struct.VP8Io, ptr %18, i32 0, i32 4
  %20 = load i32, ptr %19, align 8, !tbaa !20
  store i32 %20, ptr %5, align 4, !tbaa !19
  call void @llvm.lifetime.start.p0(i64 8, ptr %6) #6
  %21 = load ptr, ptr %4, align 8, !tbaa !3
  %22 = getelementptr inbounds nuw %struct.WebPDecParams, ptr %21, i32 0, i32 0
  %23 = load ptr, ptr %22, align 8, !tbaa !28
  %24 = getelementptr inbounds nuw %struct.WebPDecBuffer, ptr %23, i32 0, i32 4
  store ptr %24, ptr %6, align 8, !tbaa !62
  call void @llvm.lifetime.start.p0(i64 8, ptr %7) #6
  %25 = load ptr, ptr %6, align 8, !tbaa !62
  %26 = getelementptr inbounds nuw %struct.WebPRGBABuffer, ptr %25, i32 0, i32 0
  %27 = load ptr, ptr %26, align 8, !tbaa !64
  %28 = load ptr, ptr %3, align 8, !tbaa !8
  %29 = getelementptr inbounds nuw %struct.VP8Io, ptr %28, i32 0, i32 2
  %30 = load i32, ptr %29, align 8, !tbaa !66
  %31 = sext i32 %30 to i64
  %32 = load ptr, ptr %6, align 8, !tbaa !62
  %33 = getelementptr inbounds nuw %struct.WebPRGBABuffer, ptr %32, i32 0, i32 1
  %34 = load i32, ptr %33, align 8, !tbaa !67
  %35 = sext i32 %34 to i64
  %36 = mul nsw i64 %31, %35
  %37 = getelementptr inbounds i8, ptr %27, i64 %36
  store ptr %37, ptr %7, align 8, !tbaa !44
  call void @llvm.lifetime.start.p0(i64 8, ptr %8) #6
  %38 = load ptr, ptr %4, align 8, !tbaa !3
  %39 = getelementptr inbounds nuw %struct.WebPDecParams, ptr %38, i32 0, i32 0
  %40 = load ptr, ptr %39, align 8, !tbaa !28
  %41 = getelementptr inbounds nuw %struct.WebPDecBuffer, ptr %40, i32 0, i32 0
  %42 = load i32, ptr %41, align 8, !tbaa !29
  %43 = zext i32 %42 to i64
  %44 = getelementptr inbounds nuw [0 x ptr], ptr @WebPUpsamplers, i64 0, i64 %43
  %45 = load ptr, ptr %44, align 8, !tbaa !73
  store ptr %45, ptr %8, align 8, !tbaa !73
  call void @llvm.lifetime.start.p0(i64 8, ptr %9) #6
  %46 = load ptr, ptr %3, align 8, !tbaa !8
  %47 = getelementptr inbounds nuw %struct.VP8Io, ptr %46, i32 0, i32 5
  %48 = load ptr, ptr %47, align 8, !tbaa !68
  store ptr %48, ptr %9, align 8, !tbaa !44
  call void @llvm.lifetime.start.p0(i64 8, ptr %10) #6
  %49 = load ptr, ptr %3, align 8, !tbaa !8
  %50 = getelementptr inbounds nuw %struct.VP8Io, ptr %49, i32 0, i32 6
  %51 = load ptr, ptr %50, align 8, !tbaa !70
  store ptr %51, ptr %10, align 8, !tbaa !44
  call void @llvm.lifetime.start.p0(i64 8, ptr %11) #6
  %52 = load ptr, ptr %3, align 8, !tbaa !8
  %53 = getelementptr inbounds nuw %struct.VP8Io, ptr %52, i32 0, i32 7
  %54 = load ptr, ptr %53, align 8, !tbaa !71
  store ptr %54, ptr %11, align 8, !tbaa !44
  call void @llvm.lifetime.start.p0(i64 8, ptr %12) #6
  %55 = load ptr, ptr %4, align 8, !tbaa !3
  %56 = getelementptr inbounds nuw %struct.WebPDecParams, ptr %55, i32 0, i32 2
  %57 = load ptr, ptr %56, align 8, !tbaa !37
  store ptr %57, ptr %12, align 8, !tbaa !44
  call void @llvm.lifetime.start.p0(i64 8, ptr %13) #6
  %58 = load ptr, ptr %4, align 8, !tbaa !3
  %59 = getelementptr inbounds nuw %struct.WebPDecParams, ptr %58, i32 0, i32 3
  %60 = load ptr, ptr %59, align 8, !tbaa !38
  store ptr %60, ptr %13, align 8, !tbaa !44
  call void @llvm.lifetime.start.p0(i64 4, ptr %14) #6
  %61 = load ptr, ptr %3, align 8, !tbaa !8
  %62 = getelementptr inbounds nuw %struct.VP8Io, ptr %61, i32 0, i32 2
  %63 = load i32, ptr %62, align 8, !tbaa !66
  store i32 %63, ptr %14, align 4, !tbaa !19
  call void @llvm.lifetime.start.p0(i64 4, ptr %15) #6
  %64 = load ptr, ptr %3, align 8, !tbaa !8
  %65 = getelementptr inbounds nuw %struct.VP8Io, ptr %64, i32 0, i32 2
  %66 = load i32, ptr %65, align 8, !tbaa !66
  %67 = load ptr, ptr %3, align 8, !tbaa !8
  %68 = getelementptr inbounds nuw %struct.VP8Io, ptr %67, i32 0, i32 4
  %69 = load i32, ptr %68, align 8, !tbaa !20
  %70 = add nsw i32 %66, %69
  store i32 %70, ptr %15, align 4, !tbaa !19
  call void @llvm.lifetime.start.p0(i64 4, ptr %16) #6
  %71 = load ptr, ptr %3, align 8, !tbaa !8
  %72 = getelementptr inbounds nuw %struct.VP8Io, ptr %71, i32 0, i32 3
  %73 = load i32, ptr %72, align 4, !tbaa !18
  store i32 %73, ptr %16, align 4, !tbaa !19
  call void @llvm.lifetime.start.p0(i64 4, ptr %17) #6
  %74 = load i32, ptr %16, align 4, !tbaa !19
  %75 = add nsw i32 %74, 1
  %76 = sdiv i32 %75, 2
  store i32 %76, ptr %17, align 4, !tbaa !19
  %77 = load i32, ptr %14, align 4, !tbaa !19
  %78 = icmp eq i32 %77, 0
  br i1 %78, label %79, label %88

79:                                               ; preds = %2
  %80 = load ptr, ptr %8, align 8, !tbaa !73
  %81 = load ptr, ptr %9, align 8, !tbaa !44
  %82 = load ptr, ptr %10, align 8, !tbaa !44
  %83 = load ptr, ptr %11, align 8, !tbaa !44
  %84 = load ptr, ptr %10, align 8, !tbaa !44
  %85 = load ptr, ptr %11, align 8, !tbaa !44
  %86 = load ptr, ptr %7, align 8, !tbaa !44
  %87 = load i32, ptr %16, align 4, !tbaa !19
  call void %80(ptr noundef %81, ptr noundef null, ptr noundef %82, ptr noundef %83, ptr noundef %84, ptr noundef %85, ptr noundef %86, ptr noundef null, i32 noundef %87)
  br label %109

88:                                               ; preds = %2
  %89 = load ptr, ptr %8, align 8, !tbaa !73
  %90 = load ptr, ptr %4, align 8, !tbaa !3
  %91 = getelementptr inbounds nuw %struct.WebPDecParams, ptr %90, i32 0, i32 1
  %92 = load ptr, ptr %91, align 8, !tbaa !36
  %93 = load ptr, ptr %9, align 8, !tbaa !44
  %94 = load ptr, ptr %12, align 8, !tbaa !44
  %95 = load ptr, ptr %13, align 8, !tbaa !44
  %96 = load ptr, ptr %10, align 8, !tbaa !44
  %97 = load ptr, ptr %11, align 8, !tbaa !44
  %98 = load ptr, ptr %7, align 8, !tbaa !44
  %99 = load ptr, ptr %6, align 8, !tbaa !62
  %100 = getelementptr inbounds nuw %struct.WebPRGBABuffer, ptr %99, i32 0, i32 1
  %101 = load i32, ptr %100, align 8, !tbaa !67
  %102 = sext i32 %101 to i64
  %103 = sub i64 0, %102
  %104 = getelementptr inbounds i8, ptr %98, i64 %103
  %105 = load ptr, ptr %7, align 8, !tbaa !44
  %106 = load i32, ptr %16, align 4, !tbaa !19
  call void %89(ptr noundef %92, ptr noundef %93, ptr noundef %94, ptr noundef %95, ptr noundef %96, ptr noundef %97, ptr noundef %104, ptr noundef %105, i32 noundef %106)
  %107 = load i32, ptr %5, align 4, !tbaa !19
  %108 = add nsw i32 %107, 1
  store i32 %108, ptr %5, align 4, !tbaa !19
  br label %109

109:                                              ; preds = %88, %79
  br label %110

110:                                              ; preds = %166, %109
  %111 = load i32, ptr %14, align 4, !tbaa !19
  %112 = add nsw i32 %111, 2
  %113 = load i32, ptr %15, align 4, !tbaa !19
  %114 = icmp slt i32 %112, %113
  br i1 %114, label %115, label %169

115:                                              ; preds = %110
  %116 = load ptr, ptr %10, align 8, !tbaa !44
  store ptr %116, ptr %12, align 8, !tbaa !44
  %117 = load ptr, ptr %11, align 8, !tbaa !44
  store ptr %117, ptr %13, align 8, !tbaa !44
  %118 = load ptr, ptr %3, align 8, !tbaa !8
  %119 = getelementptr inbounds nuw %struct.VP8Io, ptr %118, i32 0, i32 9
  %120 = load i32, ptr %119, align 4, !tbaa !72
  %121 = load ptr, ptr %10, align 8, !tbaa !44
  %122 = sext i32 %120 to i64
  %123 = getelementptr inbounds i8, ptr %121, i64 %122
  store ptr %123, ptr %10, align 8, !tbaa !44
  %124 = load ptr, ptr %3, align 8, !tbaa !8
  %125 = getelementptr inbounds nuw %struct.VP8Io, ptr %124, i32 0, i32 9
  %126 = load i32, ptr %125, align 4, !tbaa !72
  %127 = load ptr, ptr %11, align 8, !tbaa !44
  %128 = sext i32 %126 to i64
  %129 = getelementptr inbounds i8, ptr %127, i64 %128
  store ptr %129, ptr %11, align 8, !tbaa !44
  %130 = load ptr, ptr %6, align 8, !tbaa !62
  %131 = getelementptr inbounds nuw %struct.WebPRGBABuffer, ptr %130, i32 0, i32 1
  %132 = load i32, ptr %131, align 8, !tbaa !67
  %133 = mul nsw i32 2, %132
  %134 = load ptr, ptr %7, align 8, !tbaa !44
  %135 = sext i32 %133 to i64
  %136 = getelementptr inbounds i8, ptr %134, i64 %135
  store ptr %136, ptr %7, align 8, !tbaa !44
  %137 = load ptr, ptr %3, align 8, !tbaa !8
  %138 = getelementptr inbounds nuw %struct.VP8Io, ptr %137, i32 0, i32 8
  %139 = load i32, ptr %138, align 8, !tbaa !69
  %140 = mul nsw i32 2, %139
  %141 = load ptr, ptr %9, align 8, !tbaa !44
  %142 = sext i32 %140 to i64
  %143 = getelementptr inbounds i8, ptr %141, i64 %142
  store ptr %143, ptr %9, align 8, !tbaa !44
  %144 = load ptr, ptr %8, align 8, !tbaa !73
  %145 = load ptr, ptr %9, align 8, !tbaa !44
  %146 = load ptr, ptr %3, align 8, !tbaa !8
  %147 = getelementptr inbounds nuw %struct.VP8Io, ptr %146, i32 0, i32 8
  %148 = load i32, ptr %147, align 8, !tbaa !69
  %149 = sext i32 %148 to i64
  %150 = sub i64 0, %149
  %151 = getelementptr inbounds i8, ptr %145, i64 %150
  %152 = load ptr, ptr %9, align 8, !tbaa !44
  %153 = load ptr, ptr %12, align 8, !tbaa !44
  %154 = load ptr, ptr %13, align 8, !tbaa !44
  %155 = load ptr, ptr %10, align 8, !tbaa !44
  %156 = load ptr, ptr %11, align 8, !tbaa !44
  %157 = load ptr, ptr %7, align 8, !tbaa !44
  %158 = load ptr, ptr %6, align 8, !tbaa !62
  %159 = getelementptr inbounds nuw %struct.WebPRGBABuffer, ptr %158, i32 0, i32 1
  %160 = load i32, ptr %159, align 8, !tbaa !67
  %161 = sext i32 %160 to i64
  %162 = sub i64 0, %161
  %163 = getelementptr inbounds i8, ptr %157, i64 %162
  %164 = load ptr, ptr %7, align 8, !tbaa !44
  %165 = load i32, ptr %16, align 4, !tbaa !19
  call void %144(ptr noundef %151, ptr noundef %152, ptr noundef %153, ptr noundef %154, ptr noundef %155, ptr noundef %156, ptr noundef %163, ptr noundef %164, i32 noundef %165)
  br label %166

166:                                              ; preds = %115
  %167 = load i32, ptr %14, align 4, !tbaa !19
  %168 = add nsw i32 %167, 2
  store i32 %168, ptr %14, align 4, !tbaa !19
  br label %110, !llvm.loop !74

169:                                              ; preds = %110
  %170 = load ptr, ptr %3, align 8, !tbaa !8
  %171 = getelementptr inbounds nuw %struct.VP8Io, ptr %170, i32 0, i32 8
  %172 = load i32, ptr %171, align 8, !tbaa !69
  %173 = load ptr, ptr %9, align 8, !tbaa !44
  %174 = sext i32 %172 to i64
  %175 = getelementptr inbounds i8, ptr %173, i64 %174
  store ptr %175, ptr %9, align 8, !tbaa !44
  %176 = load ptr, ptr %3, align 8, !tbaa !8
  %177 = getelementptr inbounds nuw %struct.VP8Io, ptr %176, i32 0, i32 21
  %178 = load i32, ptr %177, align 8, !tbaa !76
  %179 = load i32, ptr %15, align 4, !tbaa !19
  %180 = add nsw i32 %178, %179
  %181 = load ptr, ptr %3, align 8, !tbaa !8
  %182 = getelementptr inbounds nuw %struct.VP8Io, ptr %181, i32 0, i32 22
  %183 = load i32, ptr %182, align 4, !tbaa !77
  %184 = icmp slt i32 %180, %183
  br i1 %184, label %185, label %209

185:                                              ; preds = %169
  %186 = load ptr, ptr %4, align 8, !tbaa !3
  %187 = getelementptr inbounds nuw %struct.WebPDecParams, ptr %186, i32 0, i32 1
  %188 = load ptr, ptr %187, align 8, !tbaa !36
  %189 = load ptr, ptr %9, align 8, !tbaa !44
  %190 = load i32, ptr %16, align 4, !tbaa !19
  %191 = sext i32 %190 to i64
  %192 = mul i64 %191, 1
  call void @llvm.memcpy.p0.p0.i64(ptr align 1 %188, ptr align 1 %189, i64 %192, i1 false)
  %193 = load ptr, ptr %4, align 8, !tbaa !3
  %194 = getelementptr inbounds nuw %struct.WebPDecParams, ptr %193, i32 0, i32 2
  %195 = load ptr, ptr %194, align 8, !tbaa !37
  %196 = load ptr, ptr %10, align 8, !tbaa !44
  %197 = load i32, ptr %17, align 4, !tbaa !19
  %198 = sext i32 %197 to i64
  %199 = mul i64 %198, 1
  call void @llvm.memcpy.p0.p0.i64(ptr align 1 %195, ptr align 1 %196, i64 %199, i1 false)
  %200 = load ptr, ptr %4, align 8, !tbaa !3
  %201 = getelementptr inbounds nuw %struct.WebPDecParams, ptr %200, i32 0, i32 3
  %202 = load ptr, ptr %201, align 8, !tbaa !38
  %203 = load ptr, ptr %11, align 8, !tbaa !44
  %204 = load i32, ptr %17, align 4, !tbaa !19
  %205 = sext i32 %204 to i64
  %206 = mul i64 %205, 1
  call void @llvm.memcpy.p0.p0.i64(ptr align 1 %202, ptr align 1 %203, i64 %206, i1 false)
  %207 = load i32, ptr %5, align 4, !tbaa !19
  %208 = add nsw i32 %207, -1
  store i32 %208, ptr %5, align 4, !tbaa !19
  br label %228

209:                                              ; preds = %169
  %210 = load i32, ptr %15, align 4, !tbaa !19
  %211 = and i32 %210, 1
  %212 = icmp ne i32 %211, 0
  br i1 %212, label %227, label %213

213:                                              ; preds = %209
  %214 = load ptr, ptr %8, align 8, !tbaa !73
  %215 = load ptr, ptr %9, align 8, !tbaa !44
  %216 = load ptr, ptr %10, align 8, !tbaa !44
  %217 = load ptr, ptr %11, align 8, !tbaa !44
  %218 = load ptr, ptr %10, align 8, !tbaa !44
  %219 = load ptr, ptr %11, align 8, !tbaa !44
  %220 = load ptr, ptr %7, align 8, !tbaa !44
  %221 = load ptr, ptr %6, align 8, !tbaa !62
  %222 = getelementptr inbounds nuw %struct.WebPRGBABuffer, ptr %221, i32 0, i32 1
  %223 = load i32, ptr %222, align 8, !tbaa !67
  %224 = sext i32 %223 to i64
  %225 = getelementptr inbounds i8, ptr %220, i64 %224
  %226 = load i32, ptr %16, align 4, !tbaa !19
  call void %214(ptr noundef %215, ptr noundef null, ptr noundef %216, ptr noundef %217, ptr noundef %218, ptr noundef %219, ptr noundef %225, ptr noundef null, i32 noundef %226)
  br label %227

227:                                              ; preds = %213, %209
  br label %228

228:                                              ; preds = %227, %185
  %229 = load i32, ptr %5, align 4, !tbaa !19
  call void @llvm.lifetime.end.p0(i64 4, ptr %17) #6
  call void @llvm.lifetime.end.p0(i64 4, ptr %16) #6
  call void @llvm.lifetime.end.p0(i64 4, ptr %15) #6
  call void @llvm.lifetime.end.p0(i64 4, ptr %14) #6
  call void @llvm.lifetime.end.p0(i64 8, ptr %13) #6
  call void @llvm.lifetime.end.p0(i64 8, ptr %12) #6
  call void @llvm.lifetime.end.p0(i64 8, ptr %11) #6
  call void @llvm.lifetime.end.p0(i64 8, ptr %10) #6
  call void @llvm.lifetime.end.p0(i64 8, ptr %9) #6
  call void @llvm.lifetime.end.p0(i64 8, ptr %8) #6
  call void @llvm.lifetime.end.p0(i64 8, ptr %7) #6
  call void @llvm.lifetime.end.p0(i64 8, ptr %6) #6
  call void @llvm.lifetime.end.p0(i64 4, ptr %5) #6
  ret i32 %229
}