; Function Attrs: nounwind uwtable
define internal i32 @EmitFancyRGB(ptr noundef readonly captures(none) %0, ptr noundef readonly captures(none) %1) #1 {
  %3 = getelementptr inbounds nuw i8, ptr %0, i64 16
  %4 = load i32, ptr %3, align 8, !tbaa !15
  %5 = load ptr, ptr %1, align 8, !tbaa !23
  %6 = getelementptr inbounds nuw i8, ptr %5, i64 16
  %7 = load ptr, ptr %6, align 8, !tbaa !49
  %8 = getelementptr inbounds nuw i8, ptr %0, i64 8
  %9 = load i32, ptr %8, align 8, !tbaa !51
  %10 = sext i32 %9 to i64
  %11 = getelementptr inbounds nuw i8, ptr %5, i64 24
  %12 = load i32, ptr %11, align 8, !tbaa !52
  %13 = sext i32 %12 to i64
  %14 = mul nsw i64 %13, %10
  %15 = getelementptr inbounds i8, ptr %7, i64 %14
  %16 = load i32, ptr %5, align 8, !tbaa !24
  %17 = zext i32 %16 to i64
  %18 = getelementptr inbounds nuw [0 x ptr], ptr @WebPUpsamplers, i64 0, i64 %17
  %19 = load ptr, ptr %18, align 8, !tbaa !58
  %20 = getelementptr inbounds nuw i8, ptr %0, i64 24
  %21 = load ptr, ptr %20, align 8, !tbaa !53
  %22 = getelementptr inbounds nuw i8, ptr %0, i64 32
  %23 = load ptr, ptr %22, align 8, !tbaa !55
  %24 = getelementptr inbounds nuw i8, ptr %0, i64 40
  %25 = load ptr, ptr %24, align 8, !tbaa !56
  %26 = getelementptr inbounds nuw i8, ptr %1, i64 16
  %27 = getelementptr inbounds nuw i8, ptr %1, i64 24
  %28 = add nsw i32 %9, %4
  %29 = getelementptr inbounds nuw i8, ptr %0, i64 12
  %30 = load i32, ptr %29, align 4, !tbaa !14
  %31 = add nsw i32 %30, 1
  %32 = sdiv i32 %31, 2
  %33 = icmp eq i32 %9, 0
  br i1 %33, label %34, label %35

34:                                               ; preds = %2
  tail call void %19(ptr noundef %21, ptr noundef null, ptr noundef %23, ptr noundef %25, ptr noundef %23, ptr noundef %25, ptr noundef %15, ptr noundef null, i32 noundef %30) #6
  br label %43

35:                                               ; preds = %2
  %36 = load ptr, ptr %27, align 8, !tbaa !48
  %37 = load ptr, ptr %26, align 8, !tbaa !47
  %38 = getelementptr inbounds nuw i8, ptr %1, i64 8
  %39 = load ptr, ptr %38, align 8, !tbaa !46
  %40 = sub nsw i64 0, %13
  %41 = getelementptr inbounds i8, ptr %15, i64 %40
  tail call void %19(ptr noundef %39, ptr noundef %21, ptr noundef %37, ptr noundef %36, ptr noundef %23, ptr noundef %25, ptr noundef %41, ptr noundef %15, i32 noundef %30) #6
  %42 = add nsw i32 %4, 1
  br label %43

43:                                               ; preds = %35, %34
  %.0 = phi i32 [ %4, %34 ], [ %42, %35 ]
  %44 = icmp sgt i32 %4, 2
  br i1 %44, label %.lr.ph, label %._crit_edge

.lr.ph:                                           ; preds = %43
  %45 = add nsw i32 %9, 2
  %46 = getelementptr inbounds nuw i8, ptr %0, i64 52
  %47 = getelementptr inbounds nuw i8, ptr %0, i64 48
  br label %48

48:                                               ; preds = %.lr.ph, %48
  %49 = phi i32 [ %45, %.lr.ph ], [ %68, %48 ]
  %.08797 = phi ptr [ %15, %.lr.ph ], [ %57, %48 ]
  %.08896 = phi ptr [ %21, %.lr.ph ], [ %61, %48 ]
  %.09095 = phi ptr [ %25, %.lr.ph ], [ %53, %48 ]
  %.09194 = phi ptr [ %23, %.lr.ph ], [ %52, %48 ]
  %50 = load i32, ptr %46, align 4, !tbaa !57
  %51 = sext i32 %50 to i64
  %52 = getelementptr inbounds i8, ptr %.09194, i64 %51
  %53 = getelementptr inbounds i8, ptr %.09095, i64 %51
  %54 = load i32, ptr %11, align 8, !tbaa !52
  %55 = shl nsw i32 %54, 1
  %56 = sext i32 %55 to i64
  %57 = getelementptr inbounds i8, ptr %.08797, i64 %56
  %58 = load i32, ptr %47, align 8, !tbaa !54
  %59 = shl nsw i32 %58, 1
  %60 = sext i32 %59 to i64
  %61 = getelementptr inbounds i8, ptr %.08896, i64 %60
  %62 = sext i32 %58 to i64
  %63 = sub nsw i64 0, %62
  %64 = getelementptr inbounds i8, ptr %61, i64 %63
  %65 = sext i32 %54 to i64
  %66 = sub nsw i64 0, %65
  %67 = getelementptr inbounds i8, ptr %57, i64 %66
  tail call void %19(ptr noundef %64, ptr noundef %61, ptr noundef %.09194, ptr noundef %.09095, ptr noundef %52, ptr noundef %53, ptr noundef %67, ptr noundef %57, i32 noundef %30) #6
  %68 = add nsw i32 %49, 2
  %69 = icmp slt i32 %68, %28
  br i1 %69, label %48, label %._crit_edge, !llvm.loop !59

._crit_edge:                                      ; preds = %48, %43
  %.091.lcssa = phi ptr [ %23, %43 ], [ %52, %48 ]
  %.090.lcssa = phi ptr [ %25, %43 ], [ %53, %48 ]
  %.088.lcssa = phi ptr [ %21, %43 ], [ %61, %48 ]
  %.087.lcssa = phi ptr [ %15, %43 ], [ %57, %48 ]
  %70 = getelementptr inbounds nuw i8, ptr %0, i64 48
  %71 = load i32, ptr %70, align 8, !tbaa !54
  %72 = sext i32 %71 to i64
  %73 = getelementptr inbounds i8, ptr %.088.lcssa, i64 %72
  %74 = getelementptr inbounds nuw i8, ptr %0, i64 128
  %75 = load i32, ptr %74, align 8, !tbaa !61
  %76 = add nsw i32 %75, %28
  %77 = getelementptr inbounds nuw i8, ptr %0, i64 132
  %78 = load i32, ptr %77, align 4, !tbaa !62
  %79 = icmp slt i32 %76, %78
  br i1 %79, label %80, label %88

80:                                               ; preds = %._crit_edge
  %81 = getelementptr inbounds nuw i8, ptr %1, i64 8
  %82 = load ptr, ptr %81, align 8, !tbaa !46
  %83 = sext i32 %30 to i64
  tail call void @llvm.memcpy.p0.p0.i64(ptr align 1 %82, ptr align 1 %73, i64 %83, i1 false)
  %84 = load ptr, ptr %26, align 8, !tbaa !47
  %85 = sext i32 %32 to i64
  tail call void @llvm.memcpy.p0.p0.i64(ptr align 1 %84, ptr align 1 %.091.lcssa, i64 %85, i1 false)
  %86 = load ptr, ptr %27, align 8, !tbaa !48
  tail call void @llvm.memcpy.p0.p0.i64(ptr align 1 %86, ptr align 1 %.090.lcssa, i64 %85, i1 false)
  %87 = add nsw i32 %.0, -1
  br label %94

88:                                               ; preds = %._crit_edge
  %89 = and i32 %28, 1
  %.not = icmp eq i32 %89, 0
  br i1 %.not, label %90, label %94

90:                                               ; preds = %88
  %91 = load i32, ptr %11, align 8, !tbaa !52
  %92 = sext i32 %91 to i64
  %93 = getelementptr inbounds i8, ptr %.087.lcssa, i64 %92
  tail call void %19(ptr noundef %73, ptr noundef null, ptr noundef %.091.lcssa, ptr noundef %.090.lcssa, ptr noundef %.091.lcssa, ptr noundef %.090.lcssa, ptr noundef %93, ptr noundef null, i32 noundef %30) #6
  br label %94

94:                                               ; preds = %88, %90, %80
  %.1 = phi i32 [ %87, %80 ], [ %.0, %88 ], [ %.0, %90 ]
  ret i32 %.1
}